target datalayout = "e-m:e-p270:32:32-p271:32:32-p272:64:64-i64:64-i128:128-f80:128-n8:16:32:64-S128"
target triple = "x86_64-pc-linux-gnu"

; Function Attrs: mustprogress nounwind uwtable
define ptr @ucnv_io_stripEBCDICForCompare_77(ptr noundef %0, ptr noundef %1) #0 {
  %3 = alloca ptr, align 8
  %4 = alloca ptr, align 8
  %5 = alloca ptr, align 8
  %6 = alloca i8, align 1
  %7 = alloca i8, align 1
  %8 = alloca i8, align 1
  %9 = alloca i8, align 1
  store ptr %0, ptr %3, align 8, !tbaa !3
  store ptr %1, ptr %4, align 8, !tbaa !3
  call void @llvm.lifetime.start.p0(i64 8, ptr %5) #12
  %10 = load ptr, ptr %3, align 8, !tbaa !3
  store ptr %10, ptr %5, align 8, !tbaa !3
  call void @llvm.lifetime.start.p0(i64 1, ptr %6) #12
  call void @llvm.lifetime.start.p0(i64 1, ptr %7) #12
  call void @llvm.lifetime.start.p0(i64 1, ptr %8) #12
  call void @llvm.lifetime.start.p0(i64 1, ptr %9) #12
  store i8 0, ptr %9, align 1, !tbaa !8
  br label %11

11:                                               ; preds = %66, %60, %33, %2
  %12 = load ptr, ptr %4, align 8, !tbaa !3
  %13 = getelementptr inbounds nuw i8, ptr %12, i32 1
  store ptr %13, ptr %4, align 8, !tbaa !3
  %14 = load i8, ptr %12, align 1, !tbaa !8
  store i8 %14, ptr %8, align 1, !tbaa !8
  %15 = sext i8 %14 to i32
  %16 = icmp ne i32 %15, 0
  br i1 %16, label %17, label %70

17:                                               ; preds = %11
  %18 = load i8, ptr %8, align 1, !tbaa !8
  %19 = sext i8 %18 to i32
  %20 = icmp slt i32 %19, 0
  br i1 %20, label %21, label %28

21:                                               ; preds = %17
  %22 = load i8, ptr %8, align 1, !tbaa !8
  %23 = sext i8 %22 to i32
  %24 = and i32 %23, 127
  %25 = sext i32 %24 to i64
  %26 = getelementptr inbounds [128 x i8], ptr @_ZL11ebcdicTypes, i64 0, i64 %25
  %27 = load i8, ptr %26, align 1, !tbaa !8
  br label %29

28:                                               ; preds = %17
  br label %29

29:                                               ; preds = %28, %21
  %30 = phi i8 [ %27, %21 ], [ 0, %28 ]
  store i8 %30, ptr %6, align 1, !tbaa !8
  %31 = load i8, ptr %6, align 1, !tbaa !8
  %32 = zext i8 %31 to i32
  switch i32 %32, label %64 [
    i32 0, label %33
    i32 1, label %34
    i32 2, label %63
  ]

33:                                               ; preds = %29
  store i8 0, ptr %9, align 1, !tbaa !8
  br label %11, !llvm.loop !11

34:                                               ; preds = %29
  %35 = load i8, ptr %9, align 1, !tbaa !8
  %36 = icmp ne i8 %35, 0
  br i1 %36, label %62, label %37

37:                                               ; preds = %34
  %38 = load ptr, ptr %4, align 8, !tbaa !3
  %39 = load i8, ptr %38, align 1, !tbaa !8
  %40 = sext i8 %39 to i32
  %41 = icmp slt i32 %40, 0
  br i1 %41, label %42, label %50

42:                                               ; preds = %37
  %43 = load ptr, ptr %4, align 8, !tbaa !3
  %44 = load i8, ptr %43, align 1, !tbaa !8
  %45 = sext i8 %44 to i32
  %46 = and i32 %45, 127
  %47 = sext i32 %46 to i64
  %48 = getelementptr inbounds [128 x i8], ptr @_ZL11ebcdicTypes, i64 0, i64 %47
  %49 = load i8, ptr %48, align 1, !tbaa !8
  br label %51

50:                                               ; preds = %37
  br label %51

51:                                               ; preds = %50, %42
  %52 = phi i8 [ %49, %42 ], [ 0, %50 ]
  store i8 %52, ptr %7, align 1, !tbaa !8
  %53 = load i8, ptr %7, align 1, !tbaa !8
  %54 = zext i8 %53 to i32
  %55 = icmp eq i32 %54, 1
  br i1 %55, label %60, label %56

56:                                               ; preds = %51
  %57 = load i8, ptr %7, align 1, !tbaa !8
  %58 = zext i8 %57 to i32
  %59 = icmp eq i32 %58, 2
  br i1 %59, label %60, label %61

60:                                               ; preds = %56, %51
  br label %11, !llvm.loop !11

61:                                               ; preds = %56
  br label %62

62:                                               ; preds = %61, %34
  br label %66

63:                                               ; preds = %29
  store i8 1, ptr %9, align 1, !tbaa !8
  br label %66

64:                                               ; preds = %29
  %65 = load i8, ptr %6, align 1, !tbaa !8
  store i8 %65, ptr %8, align 1, !tbaa !8
  store i8 0, ptr %9, align 1, !tbaa !8
  br label %66

66:                                               ; preds = %64, %63, %62
  %67 = load i8, ptr %8, align 1, !tbaa !8
  %68 = load ptr, ptr %5, align 8, !tbaa !3
  %69 = getelementptr inbounds nuw i8, ptr %68, i32 1
  store ptr %69, ptr %5, align 8, !tbaa !3
  store i8 %67, ptr %68, align 1, !tbaa !8
  br label %11, !llvm.loop !11

70:                                               ; preds = %11
  %71 = load ptr, ptr %5, align 8, !tbaa !3
  store i8 0, ptr %71, align 1, !tbaa !8
  %72 = load ptr, ptr %3, align 8, !tbaa !3
  call void @llvm.lifetime.end.p0(i64 1, ptr %9) #12
  call void @llvm.lifetime.end.p0(i64 1, ptr %8) #12
  call void @llvm.lifetime.end.p0(i64 1, ptr %7) #12
  call void @llvm.lifetime.end.p0(i64 1, ptr %6) #12
  call void @llvm.lifetime.end.p0(i64 8, ptr %5) #12
  ret ptr %72
}