; Function Attrs: mustprogress nofree norecurse nosync nounwind memory(argmem: readwrite) uwtable
define noundef ptr @ucnv_io_stripEBCDICForCompare_77(ptr noundef returned writeonly %0, ptr noundef readonly captures(none) %1) #0 {
  %3 = load i8, ptr %1, align 1, !tbaa !3
  %.not2932 = icmp eq i8 %3, 0
  br i1 %.not2932, label %.outer._crit_edge, label %.lr.ph

.lr.ph:                                           ; preds = %2, %.critedge
  %4 = phi i8 [ %28, %.critedge ], [ %3, %2 ]
  %.pn = phi ptr [ %8, %.critedge ], [ %1, %2 ]
  %.0.ph35 = phi i8 [ %.1, %.critedge ], [ 0, %2 ]
  %.018.ph33 = phi ptr [ %27, %.critedge ], [ %0, %2 ]
  %5 = icmp eq i8 %.0.ph35, 0
  br label %6

6:                                                ; preds = %.lr.ph, %.backedge
  %7 = phi i8 [ %4, %.lr.ph ], [ %26, %.backedge ]
  %.pn.pn = phi ptr [ %.pn, %.lr.ph ], [ %8, %.backedge ]
  %.030 = phi i1 [ %5, %.lr.ph ], [ true, %.backedge ]
  %8 = getelementptr inbounds nuw i8, ptr %.pn.pn, i64 1
  %9 = icmp slt i8 %7, 0
  br i1 %9, label %10, label %..backedge_crit_edge

10:                                               ; preds = %6
  %11 = and i8 %7, 127
  %12 = zext nneg i8 %11 to i64
  %13 = getelementptr inbounds nuw [128 x i8], ptr @_ZL11ebcdicTypes, i64 0, i64 %12
  %14 = load i8, ptr %13, align 1, !tbaa !3
  switch i8 %14, label %.critedge [
    i8 0, label %..backedge_crit_edge
    i8 1, label %15
    i8 2, label %.critedge.loopexit
  ]

..backedge_crit_edge:                             ; preds = %6, %10
  %.pre = load i8, ptr %8, align 1, !tbaa !3
  br label %.backedge

15:                                               ; preds = %10
  br i1 %.030, label %16, label %.critedge

16:                                               ; preds = %15
  %17 = load i8, ptr %8, align 1, !tbaa !3
  %18 = icmp slt i8 %17, 0
  br i1 %18, label %19, label %.critedge

19:                                               ; preds = %16
  %20 = and i8 %17, 127
  %21 = zext nneg i8 %20 to i64
  %22 = getelementptr inbounds nuw [128 x i8], ptr @_ZL11ebcdicTypes, i64 0, i64 %21
  %23 = load i8, ptr %22, align 1, !tbaa !3
  %24 = add i8 %23, -1
  %25 = icmp ult i8 %24, 2
  br i1 %25, label %.backedge, label %.critedge

.backedge:                                        ; preds = %..backedge_crit_edge, %19
  %26 = phi i8 [ %.pre, %..backedge_crit_edge ], [ %17, %19 ]
  %.not = icmp eq i8 %26, 0
  br i1 %.not, label %.outer._crit_edge, label %6, !llvm.loop !8

.critedge.loopexit:                               ; preds = %10
  br label %.critedge

.critedge:                                        ; preds = %16, %15, %19, %10, %.critedge.loopexit
  %.016 = phi i8 [ %14, %10 ], [ %7, %19 ], [ %7, %15 ], [ %7, %16 ], [ %7, %.critedge.loopexit ]
  %.1 = phi i8 [ 0, %10 ], [ 0, %19 ], [ 1, %15 ], [ 0, %16 ], [ 1, %.critedge.loopexit ]
  %27 = getelementptr inbounds nuw i8, ptr %.018.ph33, i64 1
  store i8 %.016, ptr %.018.ph33, align 1, !tbaa !3
  %28 = load i8, ptr %8, align 1, !tbaa !3
  %.not29 = icmp eq i8 %28, 0
  br i1 %.not29, label %.outer._crit_edge, label %.lr.ph, !llvm.loop !8

.outer._crit_edge:                                ; preds = %.critedge, %.backedge, %2
  %.018.ph.lcssa = phi ptr [ %0, %2 ], [ %.018.ph33, %.backedge ], [ %27, %.critedge ]
  store i8 0, ptr %.018.ph.lcssa, align 1, !tbaa !3
  ret ptr %0
}